target datalayout = "e-m:e-p270:32:32-p271:32:32-p272:64:64-i64:64-i128:128-f80:128-n8:16:32:64-S128"
target triple = "x86_64-pc-linux-gnu"

%struct.ssl_st = type { i32, ptr, ptr, ptr, %struct.CRYPTO_REF_COUNT, ptr, %struct.crypto_ex_data_st }
%struct.CRYPTO_REF_COUNT = type { i32 }
%struct.crypto_ex_data_st = type { ptr, ptr }
%struct.ssl_connection_st = type { %struct.ssl_st, ptr, i32, ptr, ptr, ptr, i32, ptr, i32, i32, i32, i32, %struct.OSSL_TIME, %struct.OSSL_TIME, %struct.ossl_statem_st, i32, ptr, ptr, i64, i64, i64, %struct.ossl_quic_tls_callbacks_st, ptr, ptr, %struct.anon, ptr, ptr, ptr, i32, ptr, %struct.ssl_dane_st, ptr, ptr, ptr, ptr, i32, [64 x i8], [64 x i8], [64 x i8], [64 x i8], [64 x i8], [64 x i8], [64 x i8], [64 x i8], [64 x i8], [64 x i8], [64 x i8], [64 x i8], ptr, [64 x i8], i64, i32, i64, [32 x i8], ptr, ptr, ptr, i64, ptr, [32 x i8], i64, i32, ptr, ptr, i32, i32, ptr, ptr, ptr, ptr, ptr, i64, ptr, ptr, i64, i32, i32, i32, i64, i32, i32, i64, i64, i64, %struct.anon.1, ptr, i32, ptr, ptr, ptr, i32, ptr, ptr, ptr, i32, i32, i32, i32, ptr, i64, i32, ptr, %struct.srp_ctx_st, ptr, %struct.record_layer_st, ptr, ptr, ptr, ptr, i64, i32, i32, i32, i64, i64, i64, ptr, ptr, ptr, ptr, ptr, i64, ptr, i64, ptr, i64 }
%struct.OSSL_TIME = type { i64 }
%struct.ossl_statem_st = type { i32, i32, i32, i32, i32, i32, i32, i32, i32, i32, i32, i32, i32, ptr, ptr, ptr, i8 }
%struct.ossl_quic_tls_callbacks_st = type { ptr, ptr, ptr, ptr, ptr, ptr }
%struct.anon = type { i64, [32 x i8], [32 x i8], ptr, ptr, i32, i32, i32, i32, [2 x i8], i32, i32, i32, i32, %struct.anon.0, [64 x i8], i64, [64 x i8], i64, i32, i32, ptr, i64, ptr, i64, i32, i8, i8, i16, ptr, i16 }
%struct.anon.0 = type { [128 x i8], i64, [128 x i8], i64, i64, i32, ptr, ptr, [4 x ptr], [4 x i16], i64, i32, ptr, i64, ptr, i64, ptr, ptr, ptr, i32, i64, ptr, i32, ptr, i64, ptr, i64, ptr, i64, ptr, ptr, ptr, ptr, i64, i64, ptr, ptr, i32, i32, i32, i32 }
%struct.ssl_dane_st = type { ptr, ptr, ptr, ptr, ptr, i32, i32, i32, i64 }
%struct.anon.1 = type { [29 x i8], ptr, ptr, ptr, i32, ptr, i16, i32, %struct.anon.2, i32, i32, i64, ptr, i64, ptr, i64, ptr, i64, ptr, i64, ptr, i64, ptr, ptr, ptr, ptr, ptr, ptr, ptr, i64, ptr, i64, i32, i32, i32, i32, ptr, i64, i32, i8, i32, [4 x i32], i32, i8, i8, i8, i8 }
%struct.anon.2 = type { ptr, ptr, ptr, i64 }
%struct.srp_ctx_st = type { ptr, ptr, ptr, ptr, ptr, ptr, ptr, ptr, ptr, ptr, ptr, ptr, ptr, ptr, i32, i64 }
%struct.record_layer_st = type { ptr, ptr, ptr, ptr, ptr, ptr, ptr, ptr, i64, i32, i64, [4 x i8], i64, i64, i8, ptr, i32, ptr, ptr, ptr, i64, i64, i64, i64, [32 x %struct.tls_record_st] }
%struct.tls_record_st = type { ptr, i32, i8, ptr, ptr, i64, i64, i16, [8 x i8] }
%struct.ssl_method_st = type { i32, i32, i64, ptr, ptr, ptr, ptr, ptr, ptr, ptr, ptr, ptr, ptr, ptr, ptr, ptr, ptr, ptr, ptr, ptr, ptr, ptr, ptr, ptr, ptr, ptr, ptr, ptr, ptr, ptr, ptr, ptr }
%struct.ssl3_enc_method = type { ptr, ptr, ptr, ptr, ptr, i64, ptr, i64, ptr, ptr, i32, ptr, ptr, ptr }
%struct.cert_pkey_st = type { ptr, ptr, ptr, ptr, i64 }

@.str = private unnamed_addr constant [35 x i8] c"../openssl/ssl/statem/statem_lib.c\00", align 1
@__func__.tls_output_rpk = private unnamed_addr constant [15 x i8] c"tls_output_rpk\00", align 1

; Function Attrs: nounwind uwtable
define i64 @tls_output_rpk(ptr noundef %0, ptr noundef %1, ptr noundef %2) #0 {
  %4 = alloca i64, align 8
  %5 = alloca ptr, align 8
  %6 = alloca ptr, align 8
  %7 = alloca ptr, align 8
  %8 = alloca i32, align 4
  %9 = alloca ptr, align 8
  %10 = alloca ptr, align 8
  %11 = alloca i64, align 8
  %12 = alloca ptr, align 8
  %13 = alloca i32, align 4
  store ptr %0, ptr %5, align 8, !tbaa !18
  store ptr %1, ptr %6, align 8, !tbaa !97
  store ptr %2, ptr %7, align 8, !tbaa !205
  call void @llvm.lifetime.start.p0(i64 4, ptr %8) #9
  store i32 0, ptr %8, align 4, !tbaa !85
  call void @llvm.lifetime.start.p0(i64 8, ptr %9) #9
  store ptr null, ptr %9, align 8, !tbaa !82
  call void @llvm.lifetime.start.p0(i64 8, ptr %10) #9
  store ptr null, ptr %10, align 8, !tbaa !206
  call void @llvm.lifetime.start.p0(i64 8, ptr %11) #9
  store i64 0, ptr %11, align 8, !tbaa !76
  call void @llvm.lifetime.start.p0(i64 8, ptr %12) #9
  store ptr null, ptr %12, align 8, !tbaa !208
  %14 = load ptr, ptr %7, align 8, !tbaa !205
  %15 = icmp ne ptr %14, null
  br i1 %15, label %16, label %36

16:                                               ; preds = %3
  %17 = load ptr, ptr %7, align 8, !tbaa !205
  %18 = getelementptr inbounds nuw %struct.cert_pkey_st, ptr %17, i32 0, i32 0
  %19 = load ptr, ptr %18, align 8, !tbaa !209
  %20 = icmp ne ptr %19, null
  br i1 %20, label %21, label %36

21:                                               ; preds = %16
  %22 = load ptr, ptr %7, align 8, !tbaa !205
  %23 = getelementptr inbounds nuw %struct.cert_pkey_st, ptr %22, i32 0, i32 0
  %24 = load ptr, ptr %23, align 8, !tbaa !209
  store ptr %24, ptr %12, align 8, !tbaa !208
  %25 = load ptr, ptr %7, align 8, !tbaa !205
  %26 = getelementptr inbounds nuw %struct.cert_pkey_st, ptr %25, i32 0, i32 0
  %27 = load ptr, ptr %26, align 8, !tbaa !209
  %28 = call ptr @X509_get_X509_PUBKEY(ptr noundef %27)
  store ptr %28, ptr %10, align 8, !tbaa !206
  %29 = load ptr, ptr %10, align 8, !tbaa !206
  %30 = icmp eq ptr %29, null
  br i1 %30, label %31, label %33

31:                                               ; preds = %21
  call void @ERR_new()
  call void @ERR_set_debug(ptr noundef @.str, i32 noundef 1320, ptr noundef @__func__.tls_output_rpk)
  %32 = load ptr, ptr %5, align 8, !tbaa !18
  call void (ptr, i32, i32, ptr, ...) @ossl_statem_fatal(ptr noundef %32, i32 noundef 80, i32 noundef 786691, ptr noundef null)
  br label %157

33:                                               ; preds = %21
  %34 = load ptr, ptr %10, align 8, !tbaa !206
  %35 = call i32 @i2d_X509_PUBKEY(ptr noundef %34, ptr noundef %9)
  store i32 %35, ptr %8, align 4, !tbaa !85
  br label %67

36:                                               ; preds = %16, %3
  %37 = load ptr, ptr %7, align 8, !tbaa !205
  %38 = icmp ne ptr %37, null
  br i1 %38, label %39, label %49

39:                                               ; preds = %36
  %40 = load ptr, ptr %7, align 8, !tbaa !205
  %41 = getelementptr inbounds nuw %struct.cert_pkey_st, ptr %40, i32 0, i32 1
  %42 = load ptr, ptr %41, align 8, !tbaa !133
  %43 = icmp ne ptr %42, null
  br i1 %43, label %44, label %49

44:                                               ; preds = %39
  %45 = load ptr, ptr %7, align 8, !tbaa !205
  %46 = getelementptr inbounds nuw %struct.cert_pkey_st, ptr %45, i32 0, i32 1
  %47 = load ptr, ptr %46, align 8, !tbaa !133
  %48 = call i32 @i2d_PUBKEY(ptr noundef %47, ptr noundef %9)
  store i32 %48, ptr %8, align 4, !tbaa !85
  br label %66

49:                                               ; preds = %39, %36
  %50 = load ptr, ptr %5, align 8, !tbaa !18
  %51 = getelementptr inbounds nuw %struct.ssl_connection_st, ptr %50, i32 0, i32 8
  %52 = load i32, ptr %51, align 8, !tbaa !102
  %53 = icmp ne i32 %52, 0
  br i1 %53, label %54, label %56

54:                                               ; preds = %49
  call void @ERR_new()
  call void @ERR_set_debug(ptr noundef @.str, i32 noundef 1330, ptr noundef @__func__.tls_output_rpk)
  %55 = load ptr, ptr %5, align 8, !tbaa !18
  call void (ptr, i32, i32, ptr, ...) @ossl_statem_fatal(ptr noundef %55, i32 noundef 80, i32 noundef 786691, ptr noundef null)
  br label %157

56:                                               ; preds = %49
  %57 = load ptr, ptr %6, align 8, !tbaa !97
  %58 = load ptr, ptr %9, align 8, !tbaa !82
  %59 = load i32, ptr %8, align 4, !tbaa !85
  %60 = sext i32 %59 to i64
  %61 = call i32 @WPACKET_sub_memcpy__(ptr noundef %57, ptr noundef %58, i64 noundef %60, i64 noundef 3)
  %62 = icmp ne i32 %61, 0
  br i1 %62, label %65, label %63

63:                                               ; preds = %56
  call void @ERR_new()
  call void @ERR_set_debug(ptr noundef @.str, i32 noundef 1335, ptr noundef @__func__.tls_output_rpk)
  %64 = load ptr, ptr %5, align 8, !tbaa !18
  call void (ptr, i32, i32, ptr, ...) @ossl_statem_fatal(ptr noundef %64, i32 noundef 80, i32 noundef 786691, ptr noundef null)
  br label %157

65:                                               ; preds = %56
  store i64 1, ptr %4, align 8
  store i32 1, ptr %13, align 4
  br label %160

66:                                               ; preds = %44
  br label %67

67:                                               ; preds = %66, %33
  %68 = load i32, ptr %8, align 4, !tbaa !85
  %69 = icmp sle i32 %68, 0
  br i1 %69, label %70, label %72

70:                                               ; preds = %67
  call void @ERR_new()
  call void @ERR_set_debug(ptr noundef @.str, i32 noundef 1342, ptr noundef @__func__.tls_output_rpk)
  %71 = load ptr, ptr %5, align 8, !tbaa !18
  call void (ptr, i32, i32, ptr, ...) @ossl_statem_fatal(ptr noundef %71, i32 noundef 80, i32 noundef 786691, ptr noundef null)
  br label %157

72:                                               ; preds = %67
  %73 = load ptr, ptr %5, align 8, !tbaa !18
  %74 = getelementptr inbounds nuw %struct.ssl_connection_st, ptr %73, i32 0, i32 0
  %75 = getelementptr inbounds nuw %struct.ssl_st, ptr %74, i32 0, i32 3
  %76 = load ptr, ptr %75, align 8, !tbaa !86
  %77 = getelementptr inbounds nuw %struct.ssl_method_st, ptr %76, i32 0, i32 28
  %78 = load ptr, ptr %77, align 8, !tbaa !87
  %79 = getelementptr inbounds nuw %struct.ssl3_enc_method, ptr %78, i32 0, i32 10
  %80 = load i32, ptr %79, align 8, !tbaa !90
  %81 = and i32 %80, 8
  %82 = icmp ne i32 %81, 0
  br i1 %82, label %106, label %83

83:                                               ; preds = %72
  %84 = load ptr, ptr %5, align 8, !tbaa !18
  %85 = getelementptr inbounds nuw %struct.ssl_connection_st, ptr %84, i32 0, i32 0
  %86 = getelementptr inbounds nuw %struct.ssl_st, ptr %85, i32 0, i32 3
  %87 = load ptr, ptr %86, align 8, !tbaa !86
  %88 = getelementptr inbounds nuw %struct.ssl_method_st, ptr %87, i32 0, i32 0
  %89 = load i32, ptr %88, align 8, !tbaa !92
  %90 = icmp sge i32 %89, 772
  br i1 %90, label %91, label %106

91:                                               ; preds = %83
  %92 = load ptr, ptr %5, align 8, !tbaa !18
  %93 = getelementptr inbounds nuw %struct.ssl_connection_st, ptr %92, i32 0, i32 0
  %94 = getelementptr inbounds nuw %struct.ssl_st, ptr %93, i32 0, i32 3
  %95 = load ptr, ptr %94, align 8, !tbaa !86
  %96 = getelementptr inbounds nuw %struct.ssl_method_st, ptr %95, i32 0, i32 0
  %97 = load i32, ptr %96, align 8, !tbaa !92
  %98 = icmp ne i32 %97, 65536
  br i1 %98, label %99, label %106

99:                                               ; preds = %91
  %100 = load ptr, ptr %6, align 8, !tbaa !97
  %101 = call i32 @WPACKET_start_sub_packet_len__(ptr noundef %100, i64 noundef 3)
  %102 = icmp ne i32 %101, 0
  br i1 %102, label %105, label %103

103:                                              ; preds = %99
  call void @ERR_new()
  call void @ERR_set_debug(ptr noundef @.str, i32 noundef 1352, ptr noundef @__func__.tls_output_rpk)
  %104 = load ptr, ptr %5, align 8, !tbaa !18
  call void (ptr, i32, i32, ptr, ...) @ossl_statem_fatal(ptr noundef %104, i32 noundef 80, i32 noundef 786691, ptr noundef null)
  br label %157

105:                                              ; preds = %99
  br label %106

106:                                              ; preds = %105, %91, %83, %72
  %107 = load ptr, ptr %6, align 8, !tbaa !97
  %108 = load ptr, ptr %9, align 8, !tbaa !82
  %109 = load i32, ptr %8, align 4, !tbaa !85
  %110 = sext i32 %109 to i64
  %111 = call i32 @WPACKET_sub_memcpy__(ptr noundef %107, ptr noundef %108, i64 noundef %110, i64 noundef 3)
  %112 = icmp ne i32 %111, 0
  br i1 %112, label %115, label %113

113:                                              ; preds = %106
  call void @ERR_new()
  call void @ERR_set_debug(ptr noundef @.str, i32 noundef 1358, ptr noundef @__func__.tls_output_rpk)
  %114 = load ptr, ptr %5, align 8, !tbaa !18
  call void (ptr, i32, i32, ptr, ...) @ossl_statem_fatal(ptr noundef %114, i32 noundef 80, i32 noundef 786691, ptr noundef null)
  br label %157

115:                                              ; preds = %106
  %116 = load ptr, ptr %5, align 8, !tbaa !18
  %117 = getelementptr inbounds nuw %struct.ssl_connection_st, ptr %116, i32 0, i32 0
  %118 = getelementptr inbounds nuw %struct.ssl_st, ptr %117, i32 0, i32 3
  %119 = load ptr, ptr %118, align 8, !tbaa !86
  %120 = getelementptr inbounds nuw %struct.ssl_method_st, ptr %119, i32 0, i32 28
  %121 = load ptr, ptr %120, align 8, !tbaa !87
  %122 = getelementptr inbounds nuw %struct.ssl3_enc_method, ptr %121, i32 0, i32 10
  %123 = load i32, ptr %122, align 8, !tbaa !90
  %124 = and i32 %123, 8
  %125 = icmp ne i32 %124, 0
  br i1 %125, label %156, label %126

126:                                              ; preds = %115
  %127 = load ptr, ptr %5, align 8, !tbaa !18
  %128 = getelementptr inbounds nuw %struct.ssl_connection_st, ptr %127, i32 0, i32 0
  %129 = getelementptr inbounds nuw %struct.ssl_st, ptr %128, i32 0, i32 3
  %130 = load ptr, ptr %129, align 8, !tbaa !86
  %131 = getelementptr inbounds nuw %struct.ssl_method_st, ptr %130, i32 0, i32 0
  %132 = load i32, ptr %131, align 8, !tbaa !92
  %133 = icmp sge i32 %132, 772
  br i1 %133, label %134, label %156

134:                                              ; preds = %126
  %135 = load ptr, ptr %5, align 8, !tbaa !18
  %136 = getelementptr inbounds nuw %struct.ssl_connection_st, ptr %135, i32 0, i32 0
  %137 = getelementptr inbounds nuw %struct.ssl_st, ptr %136, i32 0, i32 3
  %138 = load ptr, ptr %137, align 8, !tbaa !86
  %139 = getelementptr inbounds nuw %struct.ssl_method_st, ptr %138, i32 0, i32 0
  %140 = load i32, ptr %139, align 8, !tbaa !92
  %141 = icmp ne i32 %140, 65536
  br i1 %141, label %142, label %156

142:                                              ; preds = %134
  %143 = load ptr, ptr %5, align 8, !tbaa !18
  %144 = load ptr, ptr %6, align 8, !tbaa !97
  %145 = load ptr, ptr %12, align 8, !tbaa !208
  %146 = call i32 @tls_construct_extensions(ptr noundef %143, ptr noundef %144, i32 noundef 65536, ptr noundef %145, i64 noundef 0)
  %147 = icmp ne i32 %146, 0
  br i1 %147, label %149, label %148

148:                                              ; preds = %142
  br label %157

149:                                              ; preds = %142
  %150 = load ptr, ptr %6, align 8, !tbaa !97
  %151 = call i32 @WPACKET_close(ptr noundef %150)
  %152 = icmp ne i32 %151, 0
  br i1 %152, label %155, label %153

153:                                              ; preds = %149
  call void @ERR_new()
  call void @ERR_set_debug(ptr noundef @.str, i32 noundef 1374, ptr noundef @__func__.tls_output_rpk)
  %154 = load ptr, ptr %5, align 8, !tbaa !18
  call void (ptr, i32, i32, ptr, ...) @ossl_statem_fatal(ptr noundef %154, i32 noundef 80, i32 noundef 786691, ptr noundef null)
  br label %157

155:                                              ; preds = %149
  br label %156

156:                                              ; preds = %155, %134, %126, %115
  store i64 1, ptr %11, align 8, !tbaa !76
  br label %157

157:                                              ; preds = %156, %153, %148, %113, %103, %70, %63, %54, %31
  %158 = load ptr, ptr %9, align 8, !tbaa !82
  call void @CRYPTO_free(ptr noundef %158, ptr noundef @.str, i32 noundef 1381)
  %159 = load i64, ptr %11, align 8, !tbaa !76
  store i64 %159, ptr %4, align 8
  store i32 1, ptr %13, align 4
  br label %160

160:                                              ; preds = %157, %65
  call void @llvm.lifetime.end.p0(i64 8, ptr %12) #9
  call void @llvm.lifetime.end.p0(i64 8, ptr %11) #9
  call void @llvm.lifetime.end.p0(i64 8, ptr %10) #9
  call void @llvm.lifetime.end.p0(i64 8, ptr %9) #9
  call void @llvm.lifetime.end.p0(i64 4, ptr %8) #9
  %161 = load i64, ptr %4, align 8
  ret i64 %161
}