; Function Attrs: nounwind uwtable
define range(i64 0, 2) i64 @tls_output_rpk(ptr noundef %0, ptr noundef %1, ptr noundef readonly captures(address_is_null) %2) local_unnamed_addr #0 {
  %4 = alloca ptr, align 8
  call void @llvm.lifetime.start.p0(i64 8, ptr nonnull %4) #11
  store ptr null, ptr %4, align 8, !tbaa !78
  %.not = icmp eq ptr %2, null
  br i1 %.not, label %.critedge, label %5

5:                                                ; preds = %3
  %6 = load ptr, ptr %2, align 8, !tbaa !180
  %.not43 = icmp eq ptr %6, null
  br i1 %.not43, label %13, label %7

7:                                                ; preds = %5
  %8 = tail call ptr @X509_get_X509_PUBKEY(ptr noundef nonnull %6) #11
  %9 = icmp eq ptr %8, null
  br i1 %9, label %10, label %11

10:                                               ; preds = %7
  tail call void @ERR_new() #11
  tail call void @ERR_set_debug(ptr noundef nonnull @.str, i32 noundef 1320, ptr noundef nonnull @__func__.tls_output_rpk) #11
  tail call void (ptr, i32, i32, ptr, ...) @ossl_statem_fatal(ptr noundef %0, i32 noundef 80, i32 noundef 786691, ptr noundef null) #11
  br label %61

11:                                               ; preds = %7
  %12 = call i32 @i2d_X509_PUBKEY(ptr noundef nonnull %8, ptr noundef nonnull %4) #11
  br label %24

13:                                               ; preds = %5
  %14 = getelementptr inbounds nuw i8, ptr %2, i64 8
  %15 = load ptr, ptr %14, align 8, !tbaa !115
  %.not44 = icmp eq ptr %15, null
  br i1 %.not44, label %.critedge, label %16

16:                                               ; preds = %13
  %17 = call i32 @i2d_PUBKEY(ptr noundef nonnull %15, ptr noundef nonnull %4) #11
  br label %24

.critedge:                                        ; preds = %3, %13
  %18 = getelementptr inbounds nuw i8, ptr %0, i64 120
  %19 = load i32, ptr %18, align 8, !tbaa !100
  %.not45 = icmp eq i32 %19, 0
  br i1 %.not45, label %21, label %20

20:                                               ; preds = %.critedge
  tail call void @ERR_new() #11
  tail call void @ERR_set_debug(ptr noundef nonnull @.str, i32 noundef 1330, ptr noundef nonnull @__func__.tls_output_rpk) #11
  tail call void (ptr, i32, i32, ptr, ...) @ossl_statem_fatal(ptr noundef nonnull %0, i32 noundef 80, i32 noundef 786691, ptr noundef null) #11
  br label %61

21:                                               ; preds = %.critedge
  %22 = tail call i32 @WPACKET_sub_memcpy__(ptr noundef %1, ptr noundef null, i64 noundef 0, i64 noundef 3) #11
  %.not46 = icmp eq i32 %22, 0
  br i1 %.not46, label %23, label %63

23:                                               ; preds = %21
  tail call void @ERR_new() #11
  tail call void @ERR_set_debug(ptr noundef nonnull @.str, i32 noundef 1335, ptr noundef nonnull @__func__.tls_output_rpk) #11
  tail call void (ptr, i32, i32, ptr, ...) @ossl_statem_fatal(ptr noundef nonnull %0, i32 noundef 80, i32 noundef 786691, ptr noundef null) #11
  br label %61

24:                                               ; preds = %16, %11
  %.035 = phi i32 [ %12, %11 ], [ %17, %16 ]
  %25 = icmp slt i32 %.035, 1
  br i1 %25, label %26, label %27

26:                                               ; preds = %24
  call void @ERR_new() #11
  call void @ERR_set_debug(ptr noundef nonnull @.str, i32 noundef 1342, ptr noundef nonnull @__func__.tls_output_rpk) #11
  call void (ptr, i32, i32, ptr, ...) @ossl_statem_fatal(ptr noundef %0, i32 noundef 80, i32 noundef 786691, ptr noundef null) #11
  br label %61

27:                                               ; preds = %24
  %28 = getelementptr inbounds nuw i8, ptr %0, i64 24
  %29 = load ptr, ptr %28, align 8, !tbaa !81
  %30 = getelementptr inbounds nuw i8, ptr %29, i64 216
  %31 = load ptr, ptr %30, align 8, !tbaa !82
  %32 = getelementptr inbounds nuw i8, ptr %31, i64 80
  %33 = load i32, ptr %32, align 8, !tbaa !85
  %34 = and i32 %33, 8
  %.not47 = icmp eq i32 %34, 0
  br i1 %.not47, label %35, label %41

35:                                               ; preds = %27
  %36 = load i32, ptr %29, align 8, !tbaa !87
  %37 = icmp slt i32 %36, 772
  %.not48 = icmp eq i32 %36, 65536
  %or.cond = or i1 %37, %.not48
  br i1 %or.cond, label %41, label %38

38:                                               ; preds = %35
  %39 = call i32 @WPACKET_start_sub_packet_len__(ptr noundef %1, i64 noundef 3) #11
  %.not49 = icmp eq i32 %39, 0
  br i1 %.not49, label %40, label %41

40:                                               ; preds = %38
  call void @ERR_new() #11
  call void @ERR_set_debug(ptr noundef nonnull @.str, i32 noundef 1352, ptr noundef nonnull @__func__.tls_output_rpk) #11
  call void (ptr, i32, i32, ptr, ...) @ossl_statem_fatal(ptr noundef nonnull %0, i32 noundef 80, i32 noundef 786691, ptr noundef null) #11
  br label %61

41:                                               ; preds = %38, %35, %27
  %42 = load ptr, ptr %4, align 8, !tbaa !78
  %43 = zext nneg i32 %.035 to i64
  %44 = call i32 @WPACKET_sub_memcpy__(ptr noundef %1, ptr noundef %42, i64 noundef %43, i64 noundef 3) #11
  %.not50 = icmp eq i32 %44, 0
  br i1 %.not50, label %45, label %46

45:                                               ; preds = %41
  call void @ERR_new() #11
  call void @ERR_set_debug(ptr noundef nonnull @.str, i32 noundef 1358, ptr noundef nonnull @__func__.tls_output_rpk) #11
  call void (ptr, i32, i32, ptr, ...) @ossl_statem_fatal(ptr noundef nonnull %0, i32 noundef 80, i32 noundef 786691, ptr noundef null) #11
  br label %61

46:                                               ; preds = %41
  %47 = load ptr, ptr %28, align 8, !tbaa !81
  %48 = getelementptr inbounds nuw i8, ptr %47, i64 216
  %49 = load ptr, ptr %48, align 8, !tbaa !82
  %50 = getelementptr inbounds nuw i8, ptr %49, i64 80
  %51 = load i32, ptr %50, align 8, !tbaa !85
  %52 = and i32 %51, 8
  %.not51 = icmp eq i32 %52, 0
  br i1 %.not51, label %53, label %61

53:                                               ; preds = %46
  %54 = load i32, ptr %47, align 8, !tbaa !87
  %55 = icmp slt i32 %54, 772
  %.not52 = icmp eq i32 %54, 65536
  %or.cond55 = or i1 %55, %.not52
  br i1 %or.cond55, label %61, label %56

56:                                               ; preds = %53
  %57 = call i32 @tls_construct_extensions(ptr noundef nonnull %0, ptr noundef %1, i32 noundef 65536, ptr noundef %6, i64 noundef 0) #11
  %.not53 = icmp eq i32 %57, 0
  br i1 %.not53, label %61, label %58

58:                                               ; preds = %56
  %59 = call i32 @WPACKET_close(ptr noundef %1) #11
  %.not54 = icmp eq i32 %59, 0
  br i1 %.not54, label %60, label %61

60:                                               ; preds = %58
  call void @ERR_new() #11
  call void @ERR_set_debug(ptr noundef nonnull @.str, i32 noundef 1374, ptr noundef nonnull @__func__.tls_output_rpk) #11
  call void (ptr, i32, i32, ptr, ...) @ossl_statem_fatal(ptr noundef nonnull %0, i32 noundef 80, i32 noundef 786691, ptr noundef null) #11
  br label %61

61:                                               ; preds = %46, %53, %58, %56, %60, %45, %40, %26, %23, %20, %10
  %.034 = phi i64 [ 0, %10 ], [ 0, %26 ], [ 0, %60 ], [ 0, %56 ], [ 0, %45 ], [ 0, %40 ], [ 0, %20 ], [ 0, %23 ], [ 1, %58 ], [ 1, %53 ], [ 1, %46 ]
  %62 = load ptr, ptr %4, align 8, !tbaa !78
  call void @CRYPTO_free(ptr noundef %62, ptr noundef nonnull @.str, i32 noundef 1381) #11
  br label %63

63:                                               ; preds = %21, %61
  %.036 = phi i64 [ %.034, %61 ], [ 1, %21 ]
  call void @llvm.lifetime.end.p0(i64 8, ptr nonnull %4) #11
  ret i64 %.036
}